target datalayout = "e-m:e-p270:32:32-p271:32:32-p272:64:64-i64:64-i128:128-f80:128-n8:16:32:64-S128"
target triple = "x86_64-pc-linux-gnu"

; Function Attrs: inlinehint mustprogress nounwind uwtable
define internal noundef signext i8 @_ZL9U_SUCCESS10UErrorCode(i32 noundef %0) #2 {
  %2 = alloca i32, align 4
  store i32 %0, ptr %2, align 4, !tbaa !9
  %3 = load i32, ptr %2, align 4, !tbaa !9
  %4 = icmp sle i32 %3, 0
  %5 = zext i1 %4 to i8
  ret i8 %5
}

; Function Attrs: mustprogress uwtable
define ptr @ucnv_getAvailableName_77(i32 noundef %0) #0 {
  %2 = alloca ptr, align 8
  %3 = alloca i32, align 4
  %4 = alloca i32, align 4
  %5 = alloca ptr, align 8
  %6 = alloca i32, align 4
  store i32 %0, ptr %3, align 4, !tbaa !15
  %7 = load i32, ptr %3, align 4, !tbaa !15
  %8 = icmp sle i32 0, %7
  br i1 %8, label %9, label %25

9:                                                ; preds = %1
  %10 = load i32, ptr %3, align 4, !tbaa !15
  %11 = icmp sle i32 %10, 65535
  br i1 %11, label %12, label %25

12:                                               ; preds = %9
  call void @llvm.lifetime.start.p0(i64 4, ptr %4) #11
  store i32 0, ptr %4, align 4, !tbaa !9
  call void @llvm.lifetime.start.p0(i64 8, ptr %5) #11
  %13 = load i32, ptr %3, align 4, !tbaa !15
  %14 = trunc i32 %13 to i16
  %15 = call ptr @ucnv_bld_getAvailableConverter_77(i16 noundef zeroext %14, ptr noundef %4)
  store ptr %15, ptr %5, align 8, !tbaa !3
  %16 = load i32, ptr %4, align 4, !tbaa !9
  %17 = call noundef signext i8 @_ZL9U_SUCCESS10UErrorCode(i32 noundef %16)
  %18 = icmp ne i8 %17, 0
  br i1 %18, label %19, label %21

19:                                               ; preds = %12
  %20 = load ptr, ptr %5, align 8, !tbaa !3
  store ptr %20, ptr %2, align 8
  store i32 1, ptr %6, align 4
  br label %22

21:                                               ; preds = %12
  store i32 0, ptr %6, align 4
  br label %22

22:                                               ; preds = %21, %19
  call void @llvm.lifetime.end.p0(i64 8, ptr %5) #11
  call void @llvm.lifetime.end.p0(i64 4, ptr %4) #11
  %23 = load i32, ptr %6, align 4
  switch i32 %23, label %28 [
    i32 0, label %24
    i32 1, label %26
  ]

24:                                               ; preds = %22
  br label %25

25:                                               ; preds = %24, %9, %1
  store ptr null, ptr %2, align 8
  br label %26

26:                                               ; preds = %25, %22
  %27 = load ptr, ptr %2, align 8
  ret ptr %27

28:                                               ; preds = %22
  unreachable
}