; Function Attrs: mustprogress uwtable
define ptr @ucnv_getAvailableName_77(i32 noundef %0) local_unnamed_addr #0 {
  %2 = alloca i32, align 4
  %or.cond = icmp ult i32 %0, 65536
  br i1 %or.cond, label %3, label %8

3:                                                ; preds = %1
  call void @llvm.lifetime.start.p0(i64 4, ptr nonnull %2) #16
  store i32 0, ptr %2, align 4, !tbaa !3
  %4 = trunc nuw i32 %0 to i16
  %5 = call ptr @ucnv_bld_getAvailableConverter_77(i16 noundef zeroext %4, ptr noundef nonnull %2)
  %6 = load i32, ptr %2, align 4, !tbaa !3
  %7 = icmp sgt i32 %6, 0
  call void @llvm.lifetime.end.p0(i64 4, ptr nonnull %2) #16
  br i1 %7, label %8, label %9

8:                                                ; preds = %3, %1
  br label %9

9:                                                ; preds = %3, %8
  %.1 = phi ptr [ %5, %3 ], [ null, %8 ]
  ret ptr %.1
}